; Function Attrs: nounwind uwtable
define hidden ptr @_PyAST_Lambda(ptr noundef %0, ptr noundef %1, i32 noundef %2, i32 noundef %3, i32 noundef %4, i32 noundef %5, ptr noundef %6) local_unnamed_addr #0 {
  %.not = icmp eq ptr %0, null
  br i1 %.not, label %8, label %10

8:                                                ; preds = %7
  %9 = load ptr, ptr @PyExc_ValueError, align 8, !tbaa !4
  tail call void @PyErr_SetString(ptr noundef %9, ptr noundef nonnull @.str.32) #8
  br label %22

10:                                               ; preds = %7
  %.not21 = icmp eq ptr %1, null
  br i1 %.not21, label %11, label %13

11:                                               ; preds = %10
  %12 = load ptr, ptr @PyExc_ValueError, align 8, !tbaa !4
  tail call void @PyErr_SetString(ptr noundef %12, ptr noundef nonnull @.str.33) #8
  br label %22

13:                                               ; preds = %10
  %14 = tail call ptr @_PyArena_Malloc(ptr noundef %6, i64 noundef 48) #8
  %.not22 = icmp eq ptr %14, null
  br i1 %.not22, label %22, label %15

15:                                               ; preds = %13
  store i32 5, ptr %14, align 8, !tbaa !26
  %16 = getelementptr inbounds nuw i8, ptr %14, i64 8
  store ptr %0, ptr %16, align 8, !tbaa !9
  %17 = getelementptr inbounds nuw i8, ptr %14, i64 16
  store ptr %1, ptr %17, align 8, !tbaa !9
  %18 = getelementptr inbounds nuw i8, ptr %14, i64 32
  store i32 %2, ptr %18, align 8, !tbaa !28
  %19 = getelementptr inbounds nuw i8, ptr %14, i64 36
  store i32 %3, ptr %19, align 4, !tbaa !29
  %20 = getelementptr inbounds nuw i8, ptr %14, i64 40
  store i32 %4, ptr %20, align 8, !tbaa !30
  %21 = getelementptr inbounds nuw i8, ptr %14, i64 44
  store i32 %5, ptr %21, align 4, !tbaa !31
  br label %22

22:                                               ; preds = %13, %15, %11, %8
  %.0 = phi ptr [ %14, %15 ], [ null, %11 ], [ null, %8 ], [ null, %13 ]
  ret ptr %.0
}